Certificate:
    Data:
        Version: 3 (0x2)
        Serial Number:
            c7:7a:79:2f:95:64:31:ec
        Signature Algorithm: sha1WithRSAEncryption
        Issuer: C=CN, ST=Fuzhou, O=ASLK, OU=SGW, CN=sgw/emailAddress=806
        Validity
            Not Before: Jul 27 09:47:31 2011 GMT
            Not After : Jul 26 09:47:31 2012 GMT
        Subject: C=CN, ST=Fuzhou, L=Fuzhou, O=ASLK, OU=SGW, CN=linjx/emailAddress=linjx@asia-linkage.com.cn
        Subject Public Key Info:
            Public Key Algorithm: rsaEncryption
            RSA Public Key: (512 bit)
                Modulus (512 bit):
                    00:b1:67:3f:23:9a:64:5a:ee:bb:4f:8d:24:11:65:
                    95:0f:4d:fa:98:c8:92:f9:35:76:b7:7d:d0:b6:a4:
                    46:b1:4d:0a:db:a1:d6:48:99:7f:a0:90:3b:62:84:
                    f9:d2:a1:77:53:a4:e5:6d:02:cb:84:10:c1:11:af:
                    77:a2:cd:f7:8b
                Exponent: 65537 (0x10001)
        X509v3 extensions:
            X509v3 Basic Constraints: 
                CA:FALSE
            Netscape Comment: 
                OpenSSL Generated Certificate
            X509v3 Subject Key Identifier: 
                62:F3:34:6E:B5:47:AC:D8:4C:07:70:28:30:30:89:4A:6F:1F:24:F1
            X509v3 Authority Key Identifier: 
                keyid:50:6A:89:33:26:85:36:E6:E6:A8:12:56:0A:EF:F8:C5:17:F6:A2:7C

    Signature Algorithm: sha1WithRSAEncryption
        33:1e:ad:cc:dd:07:b2:5d:5a:b4:1c:40:1e:e2:42:dc:14:5f:
        71:e5:89:79:4c:f4:d1:a5:f3:4d:f8:cc:17:ed:d1:8a:d3:e6:
        03:81:ca:c7:6e:0c:c7:3a:ca:01:bc:ff:30:29:dc:a0:c2:95:
        4d:77:83:d7:a9:82:36:6d:39:ca:d8:d7:3b:96:8e:e3:bd:8d:
        30:d3:fc:b0:ba:5f:4f:f5:81:e3:6e:1d:62:a8:2a:c6:27:2e:
        39:c4:8b:7b:f5:73:2f:1c:5e:62:f9:00:7d:94:66:a7:d5:38:
        ed:bc:b9:e2:7b:71:9b:75:6d:c6:74:7b:67:af:cc:29:b3:b8:
        a4:55
-----BEGIN CERTIFICATE-----
MIICmTCCAgKgAwIBAgIJAMd6eS+VZDHsMA0GCSqGSIb3DQEBBQUAMF0xCzAJBgNV
BAYTAkNOMQ8wDQYDVQQIEwZGdXpob3UxDTALBgNVBAoTBEFTTEsxDDAKBgNVBAsT
A1NHVzEMMAoGA1UEAxMDc2d3MRIwEAYJKoZIhvcNAQkBFgM4MDYwHhcNMTEwNzI3
MDk0NzMxWhcNMTIwNzI2MDk0NzMxWjCBhjELMAkGA1UEBhMCQ04xDzANBgNVBAgT
BkZ1emhvdTEPMA0GA1UEBxMGRnV6aG91MQ0wCwYDVQQKEwRBU0xLMQwwCgYDVQQL
EwNTR1cxDjAMBgNVBAMTBWxpbmp4MSgwJgYJKoZIhvcNAQkBFhlsaW5qeEBhc2lh
LWxpbmthZ2UuY29tLmNuMFwwDQYJKoZIhvcNAQEBBQADSwAwSAJBALFnPyOaZFru
u0+NJBFllQ9N+pjIkvk1drd90LakRrFNCtuh1kiZf6CQO2KE+dKhd1Ok5W0Cy4QQ
wRGvd6LN94sCAwEAAaN7MHkwCQYDVR0TBAIwADAsBglghkgBhvhCAQ0EHxYdT3Bl
blNTTCBHZW5lcmF0ZWQgQ2VydGlmaWNhdGUwHQYDVR0OBBYEFGLzNG61R6zYTAdw
KDAwiUpvHyTxMB8GA1UdIwQYMBaAFFBqiTMmhTbm5qgSVgrv+MUX9qJ8MA0GCSqG
SIb3DQEBBQUAA4GBADMerczdB7JdWrQcQB7iQtwUX3HliXlM9NGl8034zBft0YrT
5gOBysduDMc6ygG8/zAp3KDClU13g9epgjZtOcrY1zuWjuO9jTDT/LC6X0/1geNu
HWKoKsYnLjnEi3v1cy8cXmL5AH2UZqfVOO28ueJ7cZt1bcZ0e2evzCmzuKRV
-----END CERTIFICATE-----
