Certificate:
    Data:
        Version: 3 (0x2)
        Serial Number:
            c7:7a:79:2f:95:64:31:ea
        Signature Algorithm: sha1WithRSAEncryption
        Issuer: C=CN, ST=Fuzhou, O=ASLK, OU=SGW, CN=sgw/emailAddress=806
        Validity
            Not Before: Jul 27 09:35:29 2011 GMT
            Not After : Jul 26 09:35:29 2014 GMT
        Subject: C=CN, ST=Fuzhou, O=ASLK, OU=SGW, CN=sgw/emailAddress=806
        Subject Public Key Info:
            Public Key Algorithm: rsaEncryption
            RSA Public Key: (1024 bit)
                Modulus (1024 bit):
                    00:b6:34:a4:1e:cc:04:31:2c:fc:16:7f:f8:a4:7a:
                    7b:97:06:4b:0d:d5:b1:f0:74:bd:be:7e:00:29:ff:
                    44:9e:76:a8:da:6a:db:83:37:72:3a:d1:a0:08:07:
                    94:4d:2f:1c:d3:d0:84:99:26:9d:2d:55:00:eb:67:
                    63:d5:36:3c:a6:db:9a:1c:f9:88:df:48:54:4a:7a:
                    81:e0:c2:03:57:b7:eb:67:3d:93:07:73:88:11:09:
                    d4:bc:dc:e3:f8:c8:f7:ba:a3:7c:e7:6f:b8:22:91:
                    29:19:74:4b:b1:6b:27:4c:64:00:9b:af:a6:13:41:
                    83:d9:17:bd:aa:a5:aa:bc:ab
                Exponent: 65537 (0x10001)
        X509v3 extensions:
            X509v3 Subject Key Identifier: 
                50:6A:89:33:26:85:36:E6:E6:A8:12:56:0A:EF:F8:C5:17:F6:A2:7C
            X509v3 Authority Key Identifier: 
                keyid:50:6A:89:33:26:85:36:E6:E6:A8:12:56:0A:EF:F8:C5:17:F6:A2:7C
                DirName:/C=CN/ST=Fuzhou/O=ASLK/OU=SGW/CN=sgw/emailAddress=806
                serial:C7:7A:79:2F:95:64:31:EA

            X509v3 Basic Constraints: 
                CA:TRUE
    Signature Algorithm: sha1WithRSAEncryption
        a7:10:41:74:e3:e6:80:62:07:d5:10:56:ed:c0:7a:2d:7c:63:
        69:04:23:6e:97:40:27:7e:1b:5a:e8:00:9b:97:8c:02:26:a2:
        8b:07:56:e5:b9:59:70:28:29:46:43:80:a7:06:45:e0:d0:69:
        2e:ec:2c:d8:a5:c6:a8:7a:fc:d3:f7:92:fb:88:fd:40:21:f1:
        00:6b:8a:a3:e8:dc:29:2a:8b:bb:e8:15:31:96:73:21:b1:36:
        1f:75:81:36:b3:45:9a:96:d1:52:d7:33:0b:b2:55:da:bc:3d:
        a8:51:5c:1a:37:8e:e1:09:15:c1:51:db:6f:fb:27:3d:1b:24:
        b0:23
-----BEGIN CERTIFICATE-----
MIIC+zCCAmSgAwIBAgIJAMd6eS+VZDHqMA0GCSqGSIb3DQEBBQUAMF0xCzAJBgNV
BAYTAkNOMQ8wDQYDVQQIEwZGdXpob3UxDTALBgNVBAoTBEFTTEsxDDAKBgNVBAsT
A1NHVzEMMAoGA1UEAxMDc2d3MRIwEAYJKoZIhvcNAQkBFgM4MDYwHhcNMTEwNzI3
MDkzNTI5WhcNMTQwNzI2MDkzNTI5WjBdMQswCQYDVQQGEwJDTjEPMA0GA1UECBMG
RnV6aG91MQ0wCwYDVQQKEwRBU0xLMQwwCgYDVQQLEwNTR1cxDDAKBgNVBAMTA3Nn
dzESMBAGCSqGSIb3DQEJARYDODA2MIGfMA0GCSqGSIb3DQEBAQUAA4GNADCBiQKB
gQC2NKQezAQxLPwWf/ikenuXBksN1bHwdL2+fgAp/0SedqjaatuDN3I60aAIB5RN
LxzT0ISZJp0tVQDrZ2PVNjym25oc+YjfSFRKeoHgwgNXt+tnPZMHc4gRCdS83OP4
yPe6o3znb7gikSkZdEuxaydMZACbr6YTQYPZF72qpaq8qwIDAQABo4HCMIG/MB0G
A1UdDgQWBBRQaokzJoU25uaoElYK7/jFF/aifDCBjwYDVR0jBIGHMIGEgBRQaokz
JoU25uaoElYK7/jFF/aifKFhpF8wXTELMAkGA1UEBhMCQ04xDzANBgNVBAgTBkZ1
emhvdTENMAsGA1UEChMEQVNMSzEMMAoGA1UECxMDU0dXMQwwCgYDVQQDEwNzZ3cx
EjAQBgkqhkiG9w0BCQEWAzgwNoIJAMd6eS+VZDHqMAwGA1UdEwQFMAMBAf8wDQYJ
KoZIhvcNAQEFBQADgYEApxBBdOPmgGIH1RBW7cB6LXxjaQQjbpdAJ34bWugAm5eM
AiaiiwdW5blZcCgpRkOApwZF4NBpLuws2KXGqHr80/eS+4j9QCHxAGuKo+jcKSqL
u+gVMZZzIbE2H3WBNrNFmpbRUtczC7JV2rw9qFFcGjeO4QkVwVHbb/snPRsksCM=
-----END CERTIFICATE-----
