Certificate:
    Data:
        Version: 3 (0x2)
        Serial Number:
            c7:7a:79:2f:95:64:31:eb
        Signature Algorithm: sha1WithRSAEncryption
        Issuer: C=CN, ST=Fuzhou, O=ASLK, OU=SGW, CN=sgw/emailAddress=806
        Validity
            Not Before: Jul 27 09:45:51 2011 GMT
            Not After : Jul 26 09:45:51 2012 GMT
        Subject: C=CN, ST=Fujian, L=Fuzhou, O=ASLK, OU=SGW, CN=linjx/emailAddress=linjx@asia-linkage.com.cn
        Subject Public Key Info:
            Public Key Algorithm: rsaEncryption
            RSA Public Key: (512 bit)
                Modulus (512 bit):
                    00:ce:03:8b:24:20:85:66:b2:c7:7a:fb:79:b1:43:
                    dd:6e:86:17:80:04:52:c2:ba:29:15:d0:be:0e:ec:
                    39:4a:14:21:d9:95:4c:4a:c6:10:95:48:9c:64:f0:
                    08:20:82:a8:db:b0:7e:a9:92:41:43:16:08:47:6b:
                    ed:00:d2:b6:01
                Exponent: 65537 (0x10001)
        X509v3 extensions:
            X509v3 Basic Constraints: 
                CA:FALSE
            Netscape Comment: 
                OpenSSL Generated Certificate
            X509v3 Subject Key Identifier: 
                47:E5:FC:E0:10:69:BA:2C:E1:1C:3C:49:48:FF:1D:13:21:AF:A9:AD
            X509v3 Authority Key Identifier: 
                keyid:50:6A:89:33:26:85:36:E6:E6:A8:12:56:0A:EF:F8:C5:17:F6:A2:7C

    Signature Algorithm: sha1WithRSAEncryption
        65:dd:4e:16:59:01:5f:72:02:e4:22:18:67:08:67:a0:0b:dc:
        c9:89:60:2e:dd:e0:62:ae:c1:b4:1b:97:fb:49:60:dc:f5:c2:
        4e:bc:8e:7f:27:84:50:94:f1:92:b0:fc:46:c1:b7:70:dd:3b:
        0d:84:99:88:87:81:b6:b1:b7:45:9a:c2:b0:6c:67:ab:55:c2:
        a6:ba:e8:07:99:e6:94:99:9e:57:e7:d3:70:e4:8f:dc:b1:98:
        ee:79:e4:76:dc:bf:92:ad:00:f6:48:78:cd:cc:45:5b:5a:a8:
        72:99:8e:00:0d:37:88:04:4a:8f:a9:31:72:87:2d:e3:f6:0c:
        a6:64
-----BEGIN CERTIFICATE-----
MIICmTCCAgKgAwIBAgIJAMd6eS+VZDHrMA0GCSqGSIb3DQEBBQUAMF0xCzAJBgNV
BAYTAkNOMQ8wDQYDVQQIEwZGdXpob3UxDTALBgNVBAoTBEFTTEsxDDAKBgNVBAsT
A1NHVzEMMAoGA1UEAxMDc2d3MRIwEAYJKoZIhvcNAQkBFgM4MDYwHhcNMTEwNzI3
MDk0NTUxWhcNMTIwNzI2MDk0NTUxWjCBhjELMAkGA1UEBhMCQ04xDzANBgNVBAgT
BkZ1amlhbjEPMA0GA1UEBxMGRnV6aG91MQ0wCwYDVQQKEwRBU0xLMQwwCgYDVQQL
EwNTR1cxDjAMBgNVBAMTBWxpbmp4MSgwJgYJKoZIhvcNAQkBFhlsaW5qeEBhc2lh
LWxpbmthZ2UuY29tLmNuMFwwDQYJKoZIhvcNAQEBBQADSwAwSAJBAM4DiyQghWay
x3r7ebFD3W6GF4AEUsK6KRXQvg7sOUoUIdmVTErGEJVInGTwCCCCqNuwfqmSQUMW
CEdr7QDStgECAwEAAaN7MHkwCQYDVR0TBAIwADAsBglghkgBhvhCAQ0EHxYdT3Bl
blNTTCBHZW5lcmF0ZWQgQ2VydGlmaWNhdGUwHQYDVR0OBBYEFEfl/OAQabos4Rw8
SUj/HRMhr6mtMB8GA1UdIwQYMBaAFFBqiTMmhTbm5qgSVgrv+MUX9qJ8MA0GCSqG
SIb3DQEBBQUAA4GBAGXdThZZAV9yAuQiGGcIZ6AL3MmJYC7d4GKuwbQbl/tJYNz1
wk68jn8nhFCU8ZKw/EbBt3DdOw2EmYiHgbaxt0WawrBsZ6tVwqa66AeZ5pSZnlfn
03Dkj9yxmO555Hbcv5KtAPZIeM3MRVtaqHKZjgANN4gESo+pMXKHLeP2DKZk
-----END CERTIFICATE-----
